; Function Attrs: mustprogress nofree norecurse nosync nounwind willreturn memory(readwrite, inaccessiblemem: none) uwtable
define hidden void @_ZN17asserted_formulas5setupEv(ptr noundef nonnull readonly align 8 captures(none) dereferenceable(7236) %0) local_unnamed_addr #8 align 2 {
  %2 = getelementptr inbounds nuw i8, ptr %0, i64 8
  %3 = load ptr, ptr %2, align 8, !tbaa !354
  %4 = getelementptr inbounds nuw i8, ptr %3, i64 40
  %5 = load i32, ptr %4, align 8, !tbaa !419
  switch i32 %5, label %13 [
    i32 2, label %6
    i32 1, label %8
  ]

6:                                                ; preds = %1
  %7 = getelementptr inbounds nuw i8, ptr %3, i64 44
  store i32 0, ptr %7, align 4, !tbaa !420
  br label %13

8:                                                ; preds = %1
  %9 = getelementptr inbounds nuw i8, ptr %3, i64 44
  %10 = load i32, ptr %9, align 4, !tbaa !420
  %11 = icmp eq i32 %10, 1
  br i1 %11, label %12, label %13

12:                                               ; preds = %8
  store i32 0, ptr %9, align 4, !tbaa !420
  br label %13

13:                                               ; preds = %1, %8, %12, %6
  %14 = getelementptr inbounds nuw i8, ptr %3, i64 520
  %15 = load i32, ptr %14, align 8, !tbaa !421
  %16 = icmp eq i32 %15, 0
  br i1 %16, label %17, label %19

17:                                               ; preds = %13
  %18 = getelementptr inbounds nuw i8, ptr %3, i64 524
  store i8 0, ptr %18, align 4, !tbaa !442
  br label %19

19:                                               ; preds = %17, %13
  ret void
}